target datalayout = "e-m:e-p270:32:32-p271:32:32-p272:64:64-i64:64-i128:128-f80:128-n8:16:32:64-S128"
target triple = "x86_64-pc-linux-gnu"

%struct.rdp_transports_key_t = type { %struct._address, i16, i8, i32, [16 x i8] }
%struct._address = type { i32, i32, ptr, ptr }
%struct.rdp_transports_link_t = type { %struct.rdp_transports_key_t, ptr, ptr }
%struct.find_tcp_conversation_t = type { ptr, ptr }

; Function Attrs: nounwind null_pointer_is_valid sspstrong uwtable
define internal void @map_find_tcp_conversation_fn(ptr noundef %0, ptr noundef %1, ptr noundef %2) #7 {
  %4 = alloca ptr, align 8
  %5 = alloca ptr, align 8
  %6 = alloca ptr, align 8
  store ptr %0, ptr %4, align 8
  store ptr %1, ptr %5, align 8
  store ptr %2, ptr %6, align 8
  %7 = load ptr, ptr %6, align 8
  %8 = getelementptr inbounds nuw %struct.find_tcp_conversation_t, ptr %7, i32 0, i32 0
  %9 = load ptr, ptr %8, align 8
  %10 = load ptr, ptr %5, align 8
  %11 = getelementptr inbounds nuw %struct.rdp_transports_link_t, ptr %10, i32 0, i32 2
  %12 = load ptr, ptr %11, align 8
  %13 = icmp eq ptr %9, %12
  br i1 %13, label %14, label %20

14:                                               ; preds = %3
  %15 = load ptr, ptr %5, align 8
  %16 = getelementptr inbounds nuw %struct.rdp_transports_link_t, ptr %15, i32 0, i32 1
  %17 = load ptr, ptr %16, align 8
  %18 = load ptr, ptr %6, align 8
  %19 = getelementptr inbounds nuw %struct.find_tcp_conversation_t, ptr %18, i32 0, i32 1
  store ptr %17, ptr %19, align 8
  br label %20

20:                                               ; preds = %14, %3
  ret void
}