; Function Attrs: mustprogress nofree norecurse nosync nounwind null_pointer_is_valid sspstrong willreturn memory(argmem: readwrite) uwtable
define internal void @map_find_tcp_conversation_fn(ptr readnone captures(none) %0, ptr noundef readonly captures(none) %1, ptr noundef captures(none) %2) #5 {
  %4 = load ptr, ptr %2, align 8
  %5 = getelementptr inbounds nuw i8, ptr %1, i64 56
  %6 = load ptr, ptr %5, align 8
  %7 = icmp eq ptr %4, %6
  br i1 %7, label %8, label %12

8:                                                ; preds = %3
  %9 = getelementptr inbounds nuw i8, ptr %1, i64 48
  %10 = load ptr, ptr %9, align 8
  %11 = getelementptr inbounds nuw i8, ptr %2, i64 8
  store ptr %10, ptr %11, align 8
  br label %12

12:                                               ; preds = %8, %3
  ret void
}